target datalayout = "e-m:e-p270:32:32-p271:32:32-p272:64:64-i64:64-i128:128-f80:128-n8:16:32:64-S128"
target triple = "x86_64-pc-linux-gnu"

%struct.stbhw__process = type { ptr, ptr, ptr, ptr, ptr, i32, i32, i32 }
%struct.stbhw_config = type { i32, i32, [6 x i32], i32, i32, [4 x [4 x i32]] }

; Function Attrs: nounwind uwtable
define i32 @stbhw_make_template(ptr noundef %0, ptr noundef %1, i32 noundef %2, i32 noundef %3, i32 noundef %4) #0 {
  %6 = alloca i32, align 4
  %7 = alloca ptr, align 8
  %8 = alloca ptr, align 8
  %9 = alloca i32, align 4
  %10 = alloca i32, align 4
  %11 = alloca i32, align 4
  %12 = alloca %struct.stbhw__process, align 8
  %13 = alloca i32, align 4
  %14 = alloca i32, align 4
  store ptr %0, ptr %7, align 8, !tbaa !34
  store ptr %1, ptr %8, align 8, !tbaa !3
  store i32 %2, ptr %9, align 4, !tbaa !10
  store i32 %3, ptr %10, align 4, !tbaa !10
  store i32 %4, ptr %11, align 4, !tbaa !10
  call void @llvm.lifetime.start.p0(i64 56, ptr %12) #6
  call void @llvm.lifetime.start.p0(i64 4, ptr %13) #6
  %15 = load ptr, ptr %8, align 8, !tbaa !3
  %16 = getelementptr inbounds nuw %struct.stbhw__process, ptr %12, i32 0, i32 4
  store ptr %15, ptr %16, align 8, !tbaa !92
  %17 = load i32, ptr %9, align 4, !tbaa !10
  %18 = getelementptr inbounds nuw %struct.stbhw__process, ptr %12, i32 0, i32 6
  store i32 %17, ptr %18, align 4, !tbaa !40
  %19 = load i32, ptr %10, align 4, !tbaa !10
  %20 = getelementptr inbounds nuw %struct.stbhw__process, ptr %12, i32 0, i32 7
  store i32 %19, ptr %20, align 8, !tbaa !41
  %21 = load i32, ptr %11, align 4, !tbaa !10
  %22 = getelementptr inbounds nuw %struct.stbhw__process, ptr %12, i32 0, i32 5
  store i32 %21, ptr %22, align 8, !tbaa !93
  %23 = getelementptr inbounds nuw %struct.stbhw__process, ptr %12, i32 0, i32 0
  store ptr null, ptr %23, align 8, !tbaa !96
  %24 = load ptr, ptr %7, align 8, !tbaa !34
  %25 = getelementptr inbounds nuw %struct.stbhw__process, ptr %12, i32 0, i32 1
  store ptr %24, ptr %25, align 8, !tbaa !15
  %26 = load ptr, ptr %7, align 8, !tbaa !34
  %27 = getelementptr inbounds nuw %struct.stbhw_config, ptr %26, i32 0, i32 0
  %28 = load i32, ptr %27, align 4, !tbaa !37
  %29 = icmp ne i32 %28, 0
  br i1 %29, label %30, label %33

30:                                               ; preds = %5
  %31 = getelementptr inbounds nuw %struct.stbhw__process, ptr %12, i32 0, i32 2
  store ptr @stbhw__corner_process_h_rect, ptr %31, align 8, !tbaa !12
  %32 = getelementptr inbounds nuw %struct.stbhw__process, ptr %12, i32 0, i32 3
  store ptr @stbhw__corner_process_v_rect, ptr %32, align 8, !tbaa !26
  br label %36

33:                                               ; preds = %5
  %34 = getelementptr inbounds nuw %struct.stbhw__process, ptr %12, i32 0, i32 2
  store ptr @stbhw__edge_process_h_rect, ptr %34, align 8, !tbaa !12
  %35 = getelementptr inbounds nuw %struct.stbhw__process, ptr %12, i32 0, i32 3
  store ptr @stbhw__edge_process_v_rect, ptr %35, align 8, !tbaa !26
  br label %36

36:                                               ; preds = %33, %30
  store i32 0, ptr %13, align 4, !tbaa !10
  br label %37

37:                                               ; preds = %55, %36
  %38 = load i32, ptr %13, align 4, !tbaa !10
  %39 = getelementptr inbounds nuw %struct.stbhw__process, ptr %12, i32 0, i32 7
  %40 = load i32, ptr %39, align 8, !tbaa !41
  %41 = icmp slt i32 %38, %40
  br i1 %41, label %42, label %58

42:                                               ; preds = %37
  %43 = getelementptr inbounds nuw %struct.stbhw__process, ptr %12, i32 0, i32 4
  %44 = load ptr, ptr %43, align 8, !tbaa !92
  %45 = load i32, ptr %13, align 4, !tbaa !10
  %46 = getelementptr inbounds nuw %struct.stbhw__process, ptr %12, i32 0, i32 5
  %47 = load i32, ptr %46, align 8, !tbaa !93
  %48 = mul nsw i32 %45, %47
  %49 = sext i32 %48 to i64
  %50 = getelementptr inbounds i8, ptr %44, i64 %49
  %51 = getelementptr inbounds nuw %struct.stbhw__process, ptr %12, i32 0, i32 6
  %52 = load i32, ptr %51, align 4, !tbaa !40
  %53 = mul nsw i32 3, %52
  %54 = sext i32 %53 to i64
  call void @llvm.memset.p0.i64(ptr align 1 %50, i8 -1, i64 %54, i1 false)
  br label %55

55:                                               ; preds = %42
  %56 = load i32, ptr %13, align 4, !tbaa !10
  %57 = add nsw i32 %56, 1
  store i32 %57, ptr %13, align 4, !tbaa !10
  br label %37, !llvm.loop !113

58:                                               ; preds = %37
  %59 = call i32 @stbhw__process_template(ptr noundef %12)
  %60 = icmp ne i32 %59, 0
  br i1 %60, label %62, label %61

61:                                               ; preds = %58
  store i32 0, ptr %6, align 4
  store i32 1, ptr %14, align 4
  br label %220

62:                                               ; preds = %58
  %63 = load ptr, ptr %7, align 8, !tbaa !34
  %64 = getelementptr inbounds nuw %struct.stbhw_config, ptr %63, i32 0, i32 0
  %65 = load i32, ptr %64, align 4, !tbaa !37
  %66 = icmp ne i32 %65, 0
  br i1 %66, label %67, label %135

67:                                               ; preds = %62
  store i32 0, ptr %13, align 4, !tbaa !10
  br label %68

68:                                               ; preds = %87, %67
  %69 = load i32, ptr %13, align 4, !tbaa !10
  %70 = icmp slt i32 %69, 4
  br i1 %70, label %71, label %90

71:                                               ; preds = %68
  %72 = load ptr, ptr %7, align 8, !tbaa !34
  %73 = getelementptr inbounds nuw %struct.stbhw_config, ptr %72, i32 0, i32 2
  %74 = load i32, ptr %13, align 4, !tbaa !10
  %75 = sext i32 %74 to i64
  %76 = getelementptr inbounds [6 x i32], ptr %73, i64 0, i64 %75
  %77 = load i32, ptr %76, align 4, !tbaa !10
  %78 = trunc i32 %77 to i8
  %79 = load ptr, ptr %8, align 8, !tbaa !3
  %80 = load i32, ptr %9, align 4, !tbaa !10
  %81 = mul nsw i32 %80, 3
  %82 = sub nsw i32 %81, 1
  %83 = load i32, ptr %13, align 4, !tbaa !10
  %84 = sub nsw i32 %82, %83
  %85 = sext i32 %84 to i64
  %86 = getelementptr inbounds i8, ptr %79, i64 %85
  store i8 %78, ptr %86, align 1, !tbaa !64
  br label %87

87:                                               ; preds = %71
  %88 = load i32, ptr %13, align 4, !tbaa !10
  %89 = add nsw i32 %88, 1
  store i32 %89, ptr %13, align 4, !tbaa !10
  br label %68, !llvm.loop !114

90:                                               ; preds = %68
  %91 = load ptr, ptr %7, align 8, !tbaa !34
  %92 = getelementptr inbounds nuw %struct.stbhw_config, ptr %91, i32 0, i32 3
  %93 = load i32, ptr %92, align 4, !tbaa !38
  %94 = trunc i32 %93 to i8
  %95 = load ptr, ptr %8, align 8, !tbaa !3
  %96 = load i32, ptr %9, align 4, !tbaa !10
  %97 = mul nsw i32 %96, 3
  %98 = sub nsw i32 %97, 1
  %99 = load i32, ptr %13, align 4, !tbaa !10
  %100 = sub nsw i32 %98, %99
  %101 = sext i32 %100 to i64
  %102 = getelementptr inbounds i8, ptr %95, i64 %101
  store i8 %94, ptr %102, align 1, !tbaa !64
  %103 = load ptr, ptr %7, align 8, !tbaa !34
  %104 = getelementptr inbounds nuw %struct.stbhw_config, ptr %103, i32 0, i32 4
  %105 = load i32, ptr %104, align 4, !tbaa !39
  %106 = trunc i32 %105 to i8
  %107 = load ptr, ptr %8, align 8, !tbaa !3
  %108 = load i32, ptr %9, align 4, !tbaa !10
  %109 = mul nsw i32 %108, 3
  %110 = sub nsw i32 %109, 2
  %111 = load i32, ptr %13, align 4, !tbaa !10
  %112 = sub nsw i32 %110, %111
  %113 = sext i32 %112 to i64
  %114 = getelementptr inbounds i8, ptr %107, i64 %113
  store i8 %106, ptr %114, align 1, !tbaa !64
  %115 = load ptr, ptr %7, align 8, !tbaa !34
  %116 = getelementptr inbounds nuw %struct.stbhw_config, ptr %115, i32 0, i32 1
  %117 = load i32, ptr %116, align 4, !tbaa !16
  %118 = trunc i32 %117 to i8
  %119 = load ptr, ptr %8, align 8, !tbaa !3
  %120 = load i32, ptr %9, align 4, !tbaa !10
  %121 = mul nsw i32 %120, 3
  %122 = sub nsw i32 %121, 3
  %123 = load i32, ptr %13, align 4, !tbaa !10
  %124 = sub nsw i32 %122, %123
  %125 = sext i32 %124 to i64
  %126 = getelementptr inbounds i8, ptr %119, i64 %125
  store i8 %118, ptr %126, align 1, !tbaa !64
  %127 = load ptr, ptr %8, align 8, !tbaa !3
  %128 = load i32, ptr %9, align 4, !tbaa !10
  %129 = mul nsw i32 %128, 3
  %130 = sub nsw i32 %129, 4
  %131 = load i32, ptr %13, align 4, !tbaa !10
  %132 = sub nsw i32 %130, %131
  %133 = sext i32 %132 to i64
  %134 = getelementptr inbounds i8, ptr %127, i64 %133
  store i8 -64, ptr %134, align 1, !tbaa !64
  br label %195

135:                                              ; preds = %62
  store i32 0, ptr %13, align 4, !tbaa !10
  br label %136

136:                                              ; preds = %155, %135
  %137 = load i32, ptr %13, align 4, !tbaa !10
  %138 = icmp slt i32 %137, 6
  br i1 %138, label %139, label %158

139:                                              ; preds = %136
  %140 = load ptr, ptr %7, align 8, !tbaa !34
  %141 = getelementptr inbounds nuw %struct.stbhw_config, ptr %140, i32 0, i32 2
  %142 = load i32, ptr %13, align 4, !tbaa !10
  %143 = sext i32 %142 to i64
  %144 = getelementptr inbounds [6 x i32], ptr %141, i64 0, i64 %143
  %145 = load i32, ptr %144, align 4, !tbaa !10
  %146 = trunc i32 %145 to i8
  %147 = load ptr, ptr %8, align 8, !tbaa !3
  %148 = load i32, ptr %9, align 4, !tbaa !10
  %149 = mul nsw i32 %148, 3
  %150 = sub nsw i32 %149, 1
  %151 = load i32, ptr %13, align 4, !tbaa !10
  %152 = sub nsw i32 %150, %151
  %153 = sext i32 %152 to i64
  %154 = getelementptr inbounds i8, ptr %147, i64 %153
  store i8 %146, ptr %154, align 1, !tbaa !64
  br label %155

155:                                              ; preds = %139
  %156 = load i32, ptr %13, align 4, !tbaa !10
  %157 = add nsw i32 %156, 1
  store i32 %157, ptr %13, align 4, !tbaa !10
  br label %136, !llvm.loop !115

158:                                              ; preds = %136
  %159 = load ptr, ptr %7, align 8, !tbaa !34
  %160 = getelementptr inbounds nuw %struct.stbhw_config, ptr %159, i32 0, i32 3
  %161 = load i32, ptr %160, align 4, !tbaa !38
  %162 = trunc i32 %161 to i8
  %163 = load ptr, ptr %8, align 8, !tbaa !3
  %164 = load i32, ptr %9, align 4, !tbaa !10
  %165 = mul nsw i32 %164, 3
  %166 = sub nsw i32 %165, 1
  %167 = load i32, ptr %13, align 4, !tbaa !10
  %168 = sub nsw i32 %166, %167
  %169 = sext i32 %168 to i64
  %170 = getelementptr inbounds i8, ptr %163, i64 %169
  store i8 %162, ptr %170, align 1, !tbaa !64
  %171 = load ptr, ptr %7, align 8, !tbaa !34
  %172 = getelementptr inbounds nuw %struct.stbhw_config, ptr %171, i32 0, i32 4
  %173 = load i32, ptr %172, align 4, !tbaa !39
  %174 = trunc i32 %173 to i8
  %175 = load ptr, ptr %8, align 8, !tbaa !3
  %176 = load i32, ptr %9, align 4, !tbaa !10
  %177 = mul nsw i32 %176, 3
  %178 = sub nsw i32 %177, 2
  %179 = load i32, ptr %13, align 4, !tbaa !10
  %180 = sub nsw i32 %178, %179
  %181 = sext i32 %180 to i64
  %182 = getelementptr inbounds i8, ptr %175, i64 %181
  store i8 %174, ptr %182, align 1, !tbaa !64
  %183 = load ptr, ptr %7, align 8, !tbaa !34
  %184 = getelementptr inbounds nuw %struct.stbhw_config, ptr %183, i32 0, i32 1
  %185 = load i32, ptr %184, align 4, !tbaa !16
  %186 = trunc i32 %185 to i8
  %187 = load ptr, ptr %8, align 8, !tbaa !3
  %188 = load i32, ptr %9, align 4, !tbaa !10
  %189 = mul nsw i32 %188, 3
  %190 = sub nsw i32 %189, 3
  %191 = load i32, ptr %13, align 4, !tbaa !10
  %192 = sub nsw i32 %190, %191
  %193 = sext i32 %192 to i64
  %194 = getelementptr inbounds i8, ptr %187, i64 %193
  store i8 %186, ptr %194, align 1, !tbaa !64
  br label %195

195:                                              ; preds = %158, %90
  store i32 0, ptr %13, align 4, !tbaa !10
  br label %196

196:                                              ; preds = %216, %195
  %197 = load i32, ptr %13, align 4, !tbaa !10
  %198 = icmp slt i32 %197, 9
  br i1 %198, label %199, label %219

199:                                              ; preds = %196
  %200 = load i32, ptr %13, align 4, !tbaa !10
  %201 = mul nsw i32 %200, 55
  %202 = getelementptr inbounds nuw %struct.stbhw__process, ptr %12, i32 0, i32 4
  %203 = load ptr, ptr %202, align 8, !tbaa !92
  %204 = getelementptr inbounds nuw %struct.stbhw__process, ptr %12, i32 0, i32 6
  %205 = load i32, ptr %204, align 4, !tbaa !40
  %206 = mul nsw i32 %205, 3
  %207 = sub nsw i32 %206, 1
  %208 = load i32, ptr %13, align 4, !tbaa !10
  %209 = sub nsw i32 %207, %208
  %210 = sext i32 %209 to i64
  %211 = getelementptr inbounds i8, ptr %203, i64 %210
  %212 = load i8, ptr %211, align 1, !tbaa !64
  %213 = zext i8 %212 to i32
  %214 = xor i32 %213, %201
  %215 = trunc i32 %214 to i8
  store i8 %215, ptr %211, align 1, !tbaa !64
  br label %216

216:                                              ; preds = %199
  %217 = load i32, ptr %13, align 4, !tbaa !10
  %218 = add nsw i32 %217, 1
  store i32 %218, ptr %13, align 4, !tbaa !10
  br label %196, !llvm.loop !116

219:                                              ; preds = %196
  store i32 1, ptr %6, align 4
  store i32 1, ptr %14, align 4
  br label %220

220:                                              ; preds = %219, %61
  call void @llvm.lifetime.end.p0(i64 4, ptr %13) #6
  call void @llvm.lifetime.end.p0(i64 56, ptr %12) #6
  %221 = load i32, ptr %6, align 4
  ret i32 %221
}