; Function Attrs: nounwind uwtable
define range(i32 0, 2) i32 @stbhw_make_template(ptr noundef %0, ptr noundef %1, i32 noundef %2, i32 noundef %3, i32 noundef %4) local_unnamed_addr #2 {
  %6 = alloca %struct.stbhw__process, align 8
  call void @llvm.lifetime.start.p0(i64 56, ptr nonnull %6) #15
  %7 = getelementptr inbounds nuw i8, ptr %6, i64 32
  store ptr %1, ptr %7, align 8, !tbaa !88
  %8 = getelementptr inbounds nuw i8, ptr %6, i64 44
  store i32 %2, ptr %8, align 4, !tbaa !35
  %9 = getelementptr inbounds nuw i8, ptr %6, i64 48
  store i32 %3, ptr %9, align 8, !tbaa !36
  %10 = getelementptr inbounds nuw i8, ptr %6, i64 40
  store i32 %4, ptr %10, align 8, !tbaa !89
  store ptr null, ptr %6, align 8, !tbaa !92
  %11 = getelementptr inbounds nuw i8, ptr %6, i64 8
  store ptr %0, ptr %11, align 8, !tbaa !12
  %12 = load i32, ptr %0, align 4, !tbaa !31
  %.not = icmp eq i32 %12, 0
  %spec.select = select i1 %.not, ptr @stbhw__edge_process_h_rect, ptr @stbhw__corner_process_h_rect
  %spec.select76 = select i1 %.not, ptr @stbhw__edge_process_v_rect, ptr @stbhw__corner_process_v_rect
  %13 = getelementptr inbounds nuw i8, ptr %6, i64 16
  store ptr %spec.select, ptr %13, align 8, !tbaa !8
  %14 = getelementptr inbounds nuw i8, ptr %6, i64 24
  store ptr %spec.select76, ptr %14, align 8, !tbaa !23
  %15 = icmp sgt i32 %3, 0
  br i1 %15, label %.lr.ph, label %._crit_edge

.lr.ph:                                           ; preds = %5
  %16 = mul nsw i32 %2, 3
  %17 = sext i32 %16 to i64
  %18 = sext i32 %4 to i64
  %wide.trip.count = zext nneg i32 %3 to i64
  br label %19

19:                                               ; preds = %.lr.ph, %19
  %indvars.iv = phi i64 [ 0, %.lr.ph ], [ %indvars.iv.next, %19 ]
  %20 = mul nsw i64 %indvars.iv, %18
  %21 = getelementptr inbounds i8, ptr %1, i64 %20
  tail call void @llvm.memset.p0.i64(ptr align 1 %21, i8 -1, i64 %17, i1 false)
  %indvars.iv.next = add nuw nsw i64 %indvars.iv, 1
  %exitcond.not = icmp eq i64 %indvars.iv.next, %wide.trip.count
  br i1 %exitcond.not, label %._crit_edge, label %19, !llvm.loop !109

._crit_edge:                                      ; preds = %19, %5
  %22 = call i32 @stbhw__process_template(ptr noundef nonnull %6)
  %.not56 = icmp eq i32 %22, 0
  br i1 %.not56, label %.loopexit, label %23

23:                                               ; preds = %._crit_edge
  %24 = load i32, ptr %0, align 4, !tbaa !31
  %.not57 = icmp eq i32 %24, 0
  %25 = getelementptr inbounds nuw i8, ptr %0, i64 8
  %26 = mul nsw i32 %2, 3
  br i1 %.not57, label %.preheader, label %.preheader58

.preheader58:                                     ; preds = %23, %.preheader58
  %indvars.iv67 = phi i64 [ %indvars.iv.next68, %.preheader58 ], [ 0, %23 ]
  %27 = getelementptr inbounds nuw [6 x i32], ptr %25, i64 0, i64 %indvars.iv67
  %28 = load i32, ptr %27, align 4, !tbaa !32
  %29 = trunc i32 %28 to i8
  %30 = trunc i64 %indvars.iv67 to i32
  %31 = xor i32 %30, -1
  %32 = add i32 %26, %31
  %33 = sext i32 %32 to i64
  %34 = getelementptr inbounds i8, ptr %1, i64 %33
  store i8 %29, ptr %34, align 1, !tbaa !58
  %indvars.iv.next68 = add nuw nsw i64 %indvars.iv67, 1
  %exitcond70.not = icmp eq i64 %indvars.iv.next68, 4
  br i1 %exitcond70.not, label %35, label %.preheader58, !llvm.loop !110

35:                                               ; preds = %.preheader58
  %36 = getelementptr inbounds nuw i8, ptr %0, i64 32
  %37 = load i32, ptr %36, align 4, !tbaa !33
  %38 = trunc i32 %37 to i8
  %39 = add i32 %26, -5
  %40 = sext i32 %39 to i64
  %41 = getelementptr inbounds i8, ptr %1, i64 %40
  store i8 %38, ptr %41, align 1, !tbaa !58
  %42 = getelementptr inbounds nuw i8, ptr %0, i64 36
  %43 = load i32, ptr %42, align 4, !tbaa !34
  %44 = trunc i32 %43 to i8
  %45 = add i32 %26, -6
  %46 = sext i32 %45 to i64
  %47 = getelementptr inbounds i8, ptr %1, i64 %46
  store i8 %44, ptr %47, align 1, !tbaa !58
  %48 = getelementptr inbounds nuw i8, ptr %0, i64 4
  %49 = load i32, ptr %48, align 4, !tbaa !13
  %50 = trunc i32 %49 to i8
  %51 = add i32 %26, -7
  %52 = sext i32 %51 to i64
  %53 = getelementptr inbounds i8, ptr %1, i64 %52
  store i8 %50, ptr %53, align 1, !tbaa !58
  br label %78

.preheader:                                       ; preds = %23, %.preheader
  %indvars.iv71 = phi i64 [ %indvars.iv.next72, %.preheader ], [ 0, %23 ]
  %54 = getelementptr inbounds nuw [6 x i32], ptr %25, i64 0, i64 %indvars.iv71
  %55 = load i32, ptr %54, align 4, !tbaa !32
  %56 = trunc i32 %55 to i8
  %57 = trunc i64 %indvars.iv71 to i32
  %58 = xor i32 %57, -1
  %59 = add i32 %26, %58
  %60 = sext i32 %59 to i64
  %61 = getelementptr inbounds i8, ptr %1, i64 %60
  store i8 %56, ptr %61, align 1, !tbaa !58
  %indvars.iv.next72 = add nuw nsw i64 %indvars.iv71, 1
  %exitcond74.not = icmp eq i64 %indvars.iv.next72, 6
  br i1 %exitcond74.not, label %62, label %.preheader, !llvm.loop !111

62:                                               ; preds = %.preheader
  %63 = getelementptr inbounds nuw i8, ptr %0, i64 32
  %64 = load i32, ptr %63, align 4, !tbaa !33
  %65 = trunc i32 %64 to i8
  %66 = add i32 %26, -7
  %67 = sext i32 %66 to i64
  %68 = getelementptr inbounds i8, ptr %1, i64 %67
  store i8 %65, ptr %68, align 1, !tbaa !58
  %69 = getelementptr inbounds nuw i8, ptr %0, i64 36
  %70 = load i32, ptr %69, align 4, !tbaa !34
  %71 = trunc i32 %70 to i8
  %72 = add i32 %26, -8
  %73 = sext i32 %72 to i64
  %74 = getelementptr inbounds i8, ptr %1, i64 %73
  store i8 %71, ptr %74, align 1, !tbaa !58
  %75 = getelementptr inbounds nuw i8, ptr %0, i64 4
  %76 = load i32, ptr %75, align 4, !tbaa !13
  %77 = trunc i32 %76 to i8
  br label %78

78:                                               ; preds = %62, %35
  %.sink80 = phi i32 [ -9, %62 ], [ -8, %35 ]
  %.sink = phi i8 [ %77, %62 ], [ -64, %35 ]
  %79 = add i32 %26, %.sink80
  %80 = sext i32 %79 to i64
  %81 = getelementptr inbounds i8, ptr %1, i64 %80
  store i8 %.sink, ptr %81, align 1, !tbaa !58
  br label %82

82:                                               ; preds = %78, %82
  %.364 = phi i32 [ 0, %78 ], [ %94, %82 ]
  %83 = load ptr, ptr %7, align 8, !tbaa !88
  %84 = load i32, ptr %8, align 4, !tbaa !35
  %85 = mul nsw i32 %84, 3
  %86 = xor i32 %.364, -1
  %87 = add i32 %85, %86
  %88 = sext i32 %87 to i64
  %89 = getelementptr inbounds i8, ptr %83, i64 %88
  %90 = load i8, ptr %89, align 1, !tbaa !58
  %91 = trunc nuw i32 %.364 to i8
  %92 = mul i8 %91, 55
  %93 = xor i8 %90, %92
  store i8 %93, ptr %89, align 1, !tbaa !58
  %94 = add nuw nsw i32 %.364, 1
  %exitcond75.not = icmp eq i32 %94, 9
  br i1 %exitcond75.not, label %.loopexit, label %82, !llvm.loop !112

.loopexit:                                        ; preds = %82, %._crit_edge
  %.055 = phi i32 [ 0, %._crit_edge ], [ 1, %82 ]
  call void @llvm.lifetime.end.p0(i64 56, ptr nonnull %6) #15
  ret i32 %.055
}